; Function Attrs: nounwind uwtable
define internal noundef i32 @PSolve(double %0, ptr readnone captures(none) %1, ptr readnone captures(none) %2, ptr noundef %3, ptr noundef %4, double noundef %5, double %6, i32 %7, ptr noundef readonly captures(none) %8) #0 {
  tail call void @N_VScale(double noundef 1.000000e+00, ptr noundef %3, ptr noundef %4) #10
  %10 = getelementptr inbounds nuw i8, ptr %8, i64 39216
  %11 = load ptr, ptr %10, align 8, !tbaa !20
  tail call fastcc void @GSIter(double noundef %5, ptr noundef %4, ptr noundef %11, ptr noundef %8)
  %12 = getelementptr inbounds nuw i8, ptr %8, i64 32
  %13 = getelementptr inbounds nuw i8, ptr %8, i64 80
  %14 = load i32, ptr %13, align 8, !tbaa !28
  %15 = getelementptr inbounds nuw i8, ptr %8, i64 84
  %16 = load i32, ptr %15, align 4, !tbaa !29
  %17 = getelementptr inbounds nuw i8, ptr %8, i64 92
  %18 = load i32, ptr %17, align 4, !tbaa !33
  %19 = getelementptr inbounds nuw i8, ptr %8, i64 128
  %20 = getelementptr inbounds nuw i8, ptr %8, i64 208
  %21 = icmp sgt i32 %16, 0
  br i1 %21, label %.lr.ph43, label %._crit_edge44

.lr.ph43:                                         ; preds = %9
  %22 = getelementptr inbounds nuw i8, ptr %8, i64 72
  %23 = load i32, ptr %22, align 8, !tbaa !26
  %24 = icmp sgt i32 %14, 0
  %25 = sext i32 %23 to i64
  br i1 %24, label %.lr.ph.us.preheader, label %._crit_edge44

.lr.ph.us.preheader:                              ; preds = %.lr.ph43
  %wide.trip.count54 = zext nneg i32 %16 to i64
  %wide.trip.count = zext nneg i32 %14 to i64
  br label %.lr.ph.us

.lr.ph.us:                                        ; preds = %.lr.ph.us.preheader, %._crit_edge.us
  %indvars.iv51 = phi i64 [ 0, %.lr.ph.us.preheader ], [ %indvars.iv.next52, %._crit_edge.us ]
  %.03740.us = phi i64 [ 0, %.lr.ph.us.preheader ], [ %indvars.iv.next47, %._crit_edge.us ]
  %26 = getelementptr inbounds nuw i32, ptr %20, i64 %indvars.iv51
  %27 = load i32, ptr %26, align 4, !tbaa !35
  %28 = mul nsw i32 %27, %18
  %sext = shl i64 %.03740.us, 32
  %29 = ashr exact i64 %sext, 32
  br label %30

30:                                               ; preds = %.lr.ph.us, %30
  %indvars.iv46 = phi i64 [ %29, %.lr.ph.us ], [ %indvars.iv.next47, %30 ]
  %indvars.iv = phi i64 [ 0, %.lr.ph.us ], [ %indvars.iv.next, %30 ]
  %31 = getelementptr inbounds nuw i32, ptr %19, i64 %indvars.iv
  %32 = load i32, ptr %31, align 4, !tbaa !35
  %33 = add nsw i32 %32, %28
  %34 = sext i32 %33 to i64
  %35 = getelementptr inbounds ptr, ptr %8, i64 %34
  %36 = load ptr, ptr %35, align 8, !tbaa !9
  %37 = getelementptr inbounds ptr, ptr %12, i64 %34
  %38 = load ptr, ptr %37, align 8, !tbaa !11
  %39 = tail call ptr @N_VGetArrayPointer(ptr noundef %4) #10
  %40 = getelementptr inbounds double, ptr %39, i64 %indvars.iv46
  tail call void @SUNDlsMat_denseGETRS(ptr noundef %36, i64 noundef %25, ptr noundef %38, ptr noundef %40) #10
  %indvars.iv.next47 = add nsw i64 %indvars.iv46, %25
  %indvars.iv.next = add nuw nsw i64 %indvars.iv, 1
  %exitcond.not = icmp eq i64 %indvars.iv.next, %wide.trip.count
  br i1 %exitcond.not, label %._crit_edge.us, label %30

._crit_edge.us:                                   ; preds = %30
  %indvars.iv.next52 = add nuw nsw i64 %indvars.iv51, 1
  %exitcond55.not = icmp eq i64 %indvars.iv.next52, %wide.trip.count54
  br i1 %exitcond55.not, label %._crit_edge44, label %.lr.ph.us

._crit_edge44:                                    ; preds = %._crit_edge.us, %.lr.ph43, %9
  ret i32 0
}